; ModuleID = '42/1275.cpp'
source_filename = "42/1275.cpp"
target datalayout = "e-m:e-p270:32:32-p271:32:32-p272:64:64-i64:64-f80:128-n8:16:32:64-S128"
target triple = "x86_64-pc-linux-gnu"

%"class.std::ios_base::Init" = type { i8 }
%"class.std::basic_istream" = type { i32 (...)**, i64, %"class.std::basic_ios" }
%"class.std::basic_ios" = type { %"class.std::ios_base", %"class.std::basic_ostream"*, i8, i8, %"class.std::basic_streambuf"*, %"class.std::ctype"*, %"class.std::num_put"*, %"class.std::num_get"* }
%"class.std::ios_base" = type { i32 (...)**, i64, i64, i32, i32, i32, %"struct.std::ios_base::_Callback_list"*, %"struct.std::ios_base::_Words", [8 x %"struct.std::ios_base::_Words"], i32, %"struct.std::ios_base::_Words"*, %"class.std::locale" }
%"struct.std::ios_base::_Callback_list" = type { %"struct.std::ios_base::_Callback_list"*, void (i32, %"class.std::ios_base"*, i32)*, i32, i32 }
%"struct.std::ios_base::_Words" = type { i8*, i64 }
%"class.std::locale" = type { %"class.std::locale::_Impl"* }
%"class.std::locale::_Impl" = type { i32, %"class.std::locale::facet"**, i64, %"class.std::locale::facet"**, i8** }
%"class.std::locale::facet" = type <{ i32 (...)**, i32, [4 x i8] }>
%"class.std::basic_ostream" = type { i32 (...)**, %"class.std::basic_ios" }
%"class.std::basic_streambuf" = type { i32 (...)**, i8*, i8*, i8*, i8*, i8*, i8*, %"class.std::locale" }
%"class.std::ctype" = type <{ %"class.std::locale::facet.base", [4 x i8], %struct.__locale_struct*, i8, [7 x i8], i32*, i32*, i16*, i8, [256 x i8], [256 x i8], i8, [6 x i8] }>
%"class.std::locale::facet.base" = type <{ i32 (...)**, i32 }>
%struct.__locale_struct = type { [13 x %struct.__locale_data*], i16*, i32*, i32*, [13 x i8*] }
%struct.__locale_data = type opaque
%"class.std::num_put" = type { %"class.std::locale::facet.base", [4 x i8] }
%"class.std::num_get" = type { %"class.std::locale::facet.base", [4 x i8] }

@_ZStL8__ioinit = internal global %"class.std::ios_base::Init" zeroinitializer, align 1
@__dso_handle = external hidden global i8
@n = dso_local global i32 0, align 4
@i = dso_local global i32 0, align 4
@k = dso_local global i32 0, align 4
@j = dso_local global i32 0, align 4
@mid = dso_local global i32 0, align 4
@p = dso_local global i32 0, align 4
@t = dso_local global i32 0, align 4
@shuru = dso_local global [100000 x i32] zeroinitializer, align 16
@_ZSt3cin = external dso_local global %"class.std::basic_istream", align 8
@_ZSt4cout = external dso_local global %"class.std::basic_ostream", align 8
@llvm.global_ctors = appending global [1 x { i32, void ()*, i8* }] [{ i32, void ()*, i8* } { i32 65535, void ()* @_GLOBAL__sub_I_1275.cpp, i8* null }]

; Function Attrs: noinline uwtable
define internal void @__cxx_global_var_init() #0 section ".text.startup" {
  call void @_ZNSt8ios_base4InitC1Ev(%"class.std::ios_base::Init"* @_ZStL8__ioinit)
  %1 = call i32 @__cxa_atexit(void (i8*)* bitcast (void (%"class.std::ios_base::Init"*)* @_ZNSt8ios_base4InitD1Ev to void (i8*)*), i8* getelementptr inbounds (%"class.std::ios_base::Init", %"class.std::ios_base::Init"* @_ZStL8__ioinit, i32 0, i32 0), i8* @__dso_handle) #3
  ret void
}

declare dso_local void @_ZNSt8ios_base4InitC1Ev(%"class.std::ios_base::Init"*) unnamed_addr #1

; Function Attrs: nounwind
declare dso_local void @_ZNSt8ios_base4InitD1Ev(%"class.std::ios_base::Init"*) unnamed_addr #2

; Function Attrs: nounwind
declare dso_local i32 @__cxa_atexit(void (i8*)*, i8*, i8*) #3

; Function Attrs: noinline norecurse uwtable
define dso_local i32 @main() #4 {
  %1 = alloca i32, align 4
  store i32 0, i32* %1, align 4
  %2 = call dereferenceable(280) %"class.std::basic_istream"* @_ZNSirsERi(%"class.std::basic_istream"* @_ZSt3cin, i32* dereferenceable(4) @n)
  store i32 0, i32* @i, align 4
  br label %3

3:                                                ; preds = %12, %0
  %4 = load i32, i32* @i, align 4
  %5 = load i32, i32* @n, align 4
  %6 = icmp slt i32 %4, %5
  br i1 %6, label %7, label %15

7:                                                ; preds = %3
  %8 = load i32, i32* @i, align 4
  %9 = sext i32 %8 to i64
  %10 = getelementptr inbounds [100000 x i32], [100000 x i32]* @shuru, i64 0, i64 %9
  %11 = call dereferenceable(280) %"class.std::basic_istream"* @_ZNSirsERi(%"class.std::basic_istream"* @_ZSt3cin, i32* dereferenceable(4) %10)
  br label %12

12:                                               ; preds = %7
  %13 = load i32, i32* @i, align 4
  %14 = add nsw i32 %13, 1
  store i32 %14, i32* @i, align 4
  br label %3

15:                                               ; preds = %3
  %16 = call dereferenceable(280) %"class.std::basic_istream"* @_ZNSirsERi(%"class.std::basic_istream"* @_ZSt3cin, i32* dereferenceable(4) @k)
  store i32 0, i32* @i, align 4
  %17 = load i32, i32* @n, align 4
  store i32 %17, i32* @p, align 4
  br label %18

18:                                               ; preds = %63, %15
  %19 = load i32, i32* @n, align 4
  %20 = add nsw i32 %19, -1
  store i32 %20, i32* @n, align 4
  %21 = icmp ne i32 %19, 0
  br i1 %21, label %22, label %64

22:                                               ; preds = %18
  %23 = load i32, i32* @i, align 4
  %24 = sext i32 %23 to i64
  %25 = getelementptr inbounds [100000 x i32], [100000 x i32]* @shuru, i64 0, i64 %24
  %26 = load i32, i32* %25, align 4
  %27 = load i32, i32* @k, align 4
  %28 = icmp ne i32 %26, %27
  br i1 %28, label %29, label %34

29:                                               ; preds = %22
  %30 = load i32, i32* @i, align 4
  %31 = add nsw i32 %30, 1
  store i32 %31, i32* @i, align 4
  %32 = load i32, i32* @t, align 4
  %33 = add nsw i32 %32, 1
  store i32 %33, i32* @t, align 4
  br label %63

34:                                               ; preds = %22
  %35 = load i32, i32* @i, align 4
  %36 = add nsw i32 %35, 1
  store i32 %36, i32* @j, align 4
  br label %37

37:                                               ; preds = %54, %34
  %38 = load i32, i32* @j, align 4
  %39 = load i32, i32* @p, align 4
  %40 = icmp slt i32 %38, %39
  br i1 %40, label %41, label %57

41:                                               ; preds = %37
  %42 = load i32, i32* @i, align 4
  %43 = sext i32 %42 to i64
  %44 = getelementptr inbounds [100000 x i32], [100000 x i32]* @shuru, i64 0, i64 %43
  %45 = load i32, i32* %44, align 4
  store i32 %45, i32* @mid, align 4
  %46 = load i32, i32* @j, align 4
  %47 = sext i32 %46 to i64
  %48 = getelementptr inbounds [100000 x i32], [100000 x i32]* @shuru, i64 0, i64 %47
  %49 = load i32, i32* %48, align 4
  %50 = load i32, i32* @j, align 4
  %51 = sub nsw i32 %50, 1
  %52 = sext i32 %51 to i64
  %53 = getelementptr inbounds [100000 x i32], [100000 x i32]* @shuru, i64 0, i64 %52
  store i32 %49, i32* %53, align 4
  br label %54

54:                                               ; preds = %41
  %55 = load i32, i32* @j, align 4
  %56 = add nsw i32 %55, 1
  store i32 %56, i32* @j, align 4
  br label %37

57:                                               ; preds = %37
  %58 = load i32, i32* @mid, align 4
  %59 = load i32, i32* @p, align 4
  %60 = sub nsw i32 %59, 1
  %61 = sext i32 %60 to i64
  %62 = getelementptr inbounds [100000 x i32], [100000 x i32]* @shuru, i64 0, i64 %61
  store i32 %58, i32* %62, align 4
  br label %63

63:                                               ; preds = %57, %29
  br label %18

64:                                               ; preds = %18
  %65 = load i32, i32* getelementptr inbounds ([100000 x i32], [100000 x i32]* @shuru, i64 0, i64 0), align 16
  %66 = call dereferenceable(272) %"class.std::basic_ostream"* @_ZNSolsEi(%"class.std::basic_ostream"* @_ZSt4cout, i32 %65)
  store i32 1, i32* @i, align 4
  br label %67

67:                                               ; preds = %87, %64
  %68 = load i32, i32* @i, align 4
  %69 = load i32, i32* @t, align 4
  %70 = icmp slt i32 %68, %69
  br i1 %70, label %71, label %90

71:                                               ; preds = %67
  %72 = load i32, i32* @i, align 4
  %73 = sext i32 %72 to i64
  %74 = getelementptr inbounds [100000 x i32], [100000 x i32]* @shuru, i64 0, i64 %73
  %75 = load i32, i32* %74, align 4
  %76 = load i32, i32* @k, align 4
  %77 = icmp ne i32 %75, %76
  br i1 %77, label %78, label %85

78:                                               ; preds = %71
  %79 = call dereferenceable(272) %"class.std::basic_ostream"* @_ZStlsISt11char_traitsIcEERSt13basic_ostreamIcT_ES5_c(%"class.std::basic_ostream"* dereferenceable(272) @_ZSt4cout, i8 signext 32)
  %80 = load i32, i32* @i, align 4
  %81 = sext i32 %80 to i64
  %82 = getelementptr inbounds [100000 x i32], [100000 x i32]* @shuru, i64 0, i64 %81
  %83 = load i32, i32* %82, align 4
  %84 = call dereferenceable(272) %"class.std::basic_ostream"* @_ZNSolsEi(%"class.std::basic_ostream"* %79, i32 %83)
  br label %86

85:                                               ; preds = %71
  br label %90

86:                                               ; preds = %78
  br label %87

87:                                               ; preds = %86
  %88 = load i32, i32* @i, align 4
  %89 = add nsw i32 %88, 1
  store i32 %89, i32* @i, align 4
  br label %67

90:                                               ; preds = %85, %67
  ret i32 0
}

declare dso_local dereferenceable(280) %"class.std::basic_istream"* @_ZNSirsERi(%"class.std::basic_istream"*, i32* dereferenceable(4)) #1

declare dso_local dereferenceable(272) %"class.std::basic_ostream"* @_ZNSolsEi(%"class.std::basic_ostream"*, i32) #1

declare dso_local dereferenceable(272) %"class.std::basic_ostream"* @_ZStlsISt11char_traitsIcEERSt13basic_ostreamIcT_ES5_c(%"class.std::basic_ostream"* dereferenceable(272), i8 signext) #1

; Function Attrs: noinline uwtable
define internal void @_GLOBAL__sub_I_1275.cpp() #0 section ".text.startup" {
  call void @__cxx_global_var_init()
  ret void
}


!llvm.module.flags = !{!0}
!llvm.ident = !{!1}

!0 = !{i32 1, !"wchar_size", i32 4}
!1 = !{!"clang version 10.0.0-4ubuntu1 "}
